; Function Attrs: mustprogress uwtable
define hidden void @_ZN3sat8aig_cuts8add_nodeEjmjPKj(ptr noundef nonnull align 8 dereferenceable(480) %this, i32 noundef %v, i64 noundef %lut, i32 noundef %sz, ptr nocapture noundef readonly %args) local_unnamed_addr #3 align 2 {
entry:
  %n = alloca %"class.sat::aig_cuts::node", align 8
  tail call void @_ZN3sat8aig_cuts7reserveEj(ptr noundef nonnull align 8 dereferenceable(480) %this, i32 noundef %v)
  %m_literals = getelementptr inbounds i8, ptr %this, i64 32
  %0 = load ptr, ptr %m_literals, align 8
  %cmp.i = icmp eq ptr %0, null
  br i1 %cmp.i, label %_ZNK6vectorIN3sat7literalELb0EjE4sizeEv.exit, label %if.end.i

if.end.i:                                         ; preds = %entry
  %arrayidx.i = getelementptr inbounds i8, ptr %0, i64 -4
  %1 = load i32, ptr %arrayidx.i, align 4
  br label %_ZNK6vectorIN3sat7literalELb0EjE4sizeEv.exit

_ZNK6vectorIN3sat7literalELb0EjE4sizeEv.exit:     ; preds = %entry, %if.end.i
  %retval.0.i = phi i32 [ %1, %if.end.i ], [ 0, %entry ]
  store i8 0, ptr %n, align 8
  %m_op.i = getelementptr inbounds i8, ptr %n, i64 4
  store i32 4, ptr %m_op.i, align 4
  %m_lut.i = getelementptr inbounds i8, ptr %n, i64 8
  store i64 %lut, ptr %m_lut.i, align 8
  %m_size.i = getelementptr inbounds i8, ptr %n, i64 16
  store i32 %sz, ptr %m_size.i, align 8
  %m_offset.i = getelementptr inbounds i8, ptr %n, i64 20
  store i32 %retval.0.i, ptr %m_offset.i, align 4
  %cmp10.not = icmp eq i32 %sz, 0
  br i1 %cmp10.not, label %for.end, label %for.body.preheader

for.body.preheader:                               ; preds = %_ZNK6vectorIN3sat7literalELb0EjE4sizeEv.exit
  %wide.trip.count = zext i32 %sz to i64
  br label %for.body

for.body:                                         ; preds = %for.body.preheader, %_ZN6vectorIN3sat7literalELb0EjE9push_backEOS1_.exit
  %indvars.iv = phi i64 [ 0, %for.body.preheader ], [ %indvars.iv.next, %_ZN6vectorIN3sat7literalELb0EjE9push_backEOS1_.exit ]
  %arrayidx = getelementptr inbounds i32, ptr %args, i64 %indvars.iv
  %2 = load i32, ptr %arrayidx, align 4
  tail call void @_ZN3sat8aig_cuts7reserveEj(ptr noundef nonnull align 8 dereferenceable(480) %this, i32 noundef %2)
  %3 = load i32, ptr %arrayidx, align 4
  %shl.i = shl i32 %3, 1
  %4 = load ptr, ptr %m_literals, align 8
  %cmp.i7 = icmp eq ptr %4, null
  br i1 %cmp.i7, label %if.then.i, label %lor.lhs.false.i

lor.lhs.false.i:                                  ; preds = %for.body
  %arrayidx.i8 = getelementptr inbounds i8, ptr %4, i64 -4
  %5 = load i32, ptr %arrayidx.i8, align 4
  %arrayidx4.i = getelementptr inbounds i8, ptr %4, i64 -8
  %6 = load i32, ptr %arrayidx4.i, align 4
  %cmp5.i = icmp eq i32 %5, %6
  br i1 %cmp5.i, label %if.then.i, label %_ZN6vectorIN3sat7literalELb0EjE9push_backEOS1_.exit

if.then.i:                                        ; preds = %lor.lhs.false.i, %for.body
  tail call void @_ZN6vectorIN3sat7literalELb0EjE13expand_vectorEv(ptr noundef nonnull align 8 dereferenceable(8) %m_literals)
  %.pre.i = load ptr, ptr %m_literals, align 8
  %arrayidx8.phi.trans.insert.i = getelementptr inbounds i8, ptr %.pre.i, i64 -4
  %.pre1.i = load i32, ptr %arrayidx8.phi.trans.insert.i, align 4
  br label %_ZN6vectorIN3sat7literalELb0EjE9push_backEOS1_.exit

_ZN6vectorIN3sat7literalELb0EjE9push_backEOS1_.exit: ; preds = %lor.lhs.false.i, %if.then.i
  %7 = phi i32 [ %.pre1.i, %if.then.i ], [ %5, %lor.lhs.false.i ]
  %8 = phi ptr [ %.pre.i, %if.then.i ], [ %4, %lor.lhs.false.i ]
  %idx.ext.i = zext i32 %7 to i64
  %add.ptr.i = getelementptr inbounds %"class.sat::literal", ptr %8, i64 %idx.ext.i
  store i32 %shl.i, ptr %add.ptr.i, align 4
  %9 = load ptr, ptr %m_literals, align 8
  %arrayidx10.i = getelementptr inbounds i8, ptr %9, i64 -4
  %10 = load i32, ptr %arrayidx10.i, align 4
  %inc.i = add i32 %10, 1
  store i32 %inc.i, ptr %arrayidx10.i, align 4
  %indvars.iv.next = add nuw nsw i64 %indvars.iv, 1
  %exitcond.not = icmp eq i64 %indvars.iv.next, %wide.trip.count
  br i1 %exitcond.not, label %for.end, label %for.body, !llvm.loop !32

for.end:                                          ; preds = %_ZN6vectorIN3sat7literalELb0EjE9push_backEOS1_.exit, %_ZNK6vectorIN3sat7literalELb0EjE4sizeEv.exit
  call void @_ZN3sat8aig_cuts8add_nodeEjRKNS0_4nodeE(ptr noundef nonnull align 8 dereferenceable(480) %this, i32 noundef %v, ptr noundef nonnull align 8 dereferenceable(24) %n)
  ret void
}